target datalayout = "e-m:e-p270:32:32-p271:32:32-p272:64:64-i64:64-i128:128-f80:128-n8:16:32:64-S128"
target triple = "x86_64-pc-linux-gnu"

%struct.camelsrt_info_t = type { i32, ptr, i8, [10 x i8], [10 x %struct.camelsrt_msginfo_t] }
%struct.camelsrt_msginfo_t = type { i8, i8, i8, %struct.nstime_t, %struct.nstime_t }
%struct.nstime_t = type { i64, i32 }
%struct._stat_tap_table_item_type = type { i32, %union.anon.9, %union.anon.10 }
%union.anon.9 = type { ptr }
%union.anon.10 = type { ptr }
%struct._stat_tap_table_ui = type { i32, ptr, ptr, ptr, ptr, ptr, ptr, ptr, ptr, i64, ptr, i64, ptr, ptr, i32 }
%struct._stat_data_t = type { ptr, ptr }
%struct._GArray = type { ptr, i32 }
%struct._stat_tap_table = type { ptr, ptr, i32, i32, ptr }

; Function Attrs: null_pointer_is_valid sspstrong uwtable
define internal i32 @camel_stat_packet(ptr noundef %0, ptr noundef %1, ptr noundef %2, ptr noundef %3, i32 noundef %4) #0 {
  %6 = alloca i32, align 4
  %7 = alloca ptr, align 8
  %8 = alloca ptr, align 8
  %9 = alloca ptr, align 8
  %10 = alloca ptr, align 8
  %11 = alloca i32, align 4
  %12 = alloca ptr, align 8
  %13 = alloca ptr, align 8
  %14 = alloca ptr, align 8
  %15 = alloca ptr, align 8
  %16 = alloca i32, align 4
  store ptr %0, ptr %7, align 8
  store ptr %1, ptr %8, align 8
  store ptr %2, ptr %9, align 8
  store ptr %3, ptr %10, align 8
  store i32 %4, ptr %11, align 4
  call void @llvm.lifetime.start.p0(i64 8, ptr %12) #11
  %17 = load ptr, ptr %7, align 8
  store ptr %17, ptr %12, align 8
  call void @llvm.lifetime.start.p0(i64 8, ptr %13) #11
  %18 = load ptr, ptr %10, align 8
  store ptr %18, ptr %13, align 8
  call void @llvm.lifetime.start.p0(i64 8, ptr %14) #11
  call void @llvm.lifetime.start.p0(i64 8, ptr %15) #11
  %19 = load ptr, ptr %12, align 8
  %20 = getelementptr inbounds nuw %struct._stat_data_t, ptr %19, i32 0, i32 0
  %21 = load ptr, ptr %20, align 8
  %22 = getelementptr inbounds nuw %struct._stat_tap_table_ui, ptr %21, i32 0, i32 13
  %23 = load ptr, ptr %22, align 8
  %24 = getelementptr inbounds nuw %struct._GArray, ptr %23, i32 0, i32 0
  %25 = load ptr, ptr %24, align 8
  %26 = getelementptr ptr, ptr %25, i64 0
  %27 = load ptr, ptr %26, align 8
  store ptr %27, ptr %14, align 8
  %28 = load ptr, ptr %13, align 8
  %29 = getelementptr inbounds nuw %struct.camelsrt_info_t, ptr %28, i32 0, i32 2
  %30 = load i8, ptr %29, align 8
  %31 = zext i8 %30 to i32
  %32 = load ptr, ptr %14, align 8
  %33 = getelementptr inbounds nuw %struct._stat_tap_table, ptr %32, i32 0, i32 3
  %34 = load i32, ptr %33, align 4
  %35 = icmp uge i32 %31, %34
  br i1 %35, label %36, label %37

36:                                               ; preds = %5
  store i32 0, ptr %6, align 4
  store i32 1, ptr %16, align 4
  br label %54

37:                                               ; preds = %5
  %38 = load ptr, ptr %14, align 8
  %39 = load ptr, ptr %13, align 8
  %40 = getelementptr inbounds nuw %struct.camelsrt_info_t, ptr %39, i32 0, i32 2
  %41 = load i8, ptr %40, align 8
  %42 = zext i8 %41 to i32
  %43 = call ptr @stat_tap_get_field_data(ptr noundef %38, i32 noundef %42, i32 noundef 1)
  store ptr %43, ptr %15, align 8
  %44 = load ptr, ptr %15, align 8
  %45 = getelementptr inbounds nuw %struct._stat_tap_table_item_type, ptr %44, i32 0, i32 1
  %46 = load i32, ptr %45, align 8
  %47 = add i32 %46, 1
  store i32 %47, ptr %45, align 8
  %48 = load ptr, ptr %14, align 8
  %49 = load ptr, ptr %13, align 8
  %50 = getelementptr inbounds nuw %struct.camelsrt_info_t, ptr %49, i32 0, i32 2
  %51 = load i8, ptr %50, align 8
  %52 = zext i8 %51 to i32
  %53 = load ptr, ptr %15, align 8
  call void @stat_tap_set_field_data(ptr noundef %48, i32 noundef %52, i32 noundef 1, ptr noundef %53)
  store i32 1, ptr %6, align 4
  store i32 1, ptr %16, align 4
  br label %54

54:                                               ; preds = %37, %36
  call void @llvm.lifetime.end.p0(i64 8, ptr %15) #11
  call void @llvm.lifetime.end.p0(i64 8, ptr %14) #11
  call void @llvm.lifetime.end.p0(i64 8, ptr %13) #11
  call void @llvm.lifetime.end.p0(i64 8, ptr %12) #11
  %55 = load i32, ptr %6, align 4
  ret i32 %55
}