; Function Attrs: null_pointer_is_valid sspstrong uwtable
define internal range(i32 0, 2) i32 @camel_stat_packet(ptr noundef readonly captures(none) %0, ptr readnone captures(none) %1, ptr readnone captures(none) %2, ptr noundef readonly captures(none) %3, i32 %4) #0 {
  %6 = load ptr, ptr %0, align 8
  %7 = getelementptr inbounds nuw i8, ptr %6, i64 104
  %8 = load ptr, ptr %7, align 8
  %9 = load ptr, ptr %8, align 8
  %10 = load ptr, ptr %9, align 8
  %11 = getelementptr inbounds nuw i8, ptr %3, i64 16
  %12 = load i8, ptr %11, align 8
  %13 = zext i8 %12 to i32
  %14 = getelementptr inbounds nuw i8, ptr %10, i64 20
  %15 = load i32, ptr %14, align 4
  %.not = icmp ugt i32 %15, %13
  br i1 %.not, label %16, label %23

16:                                               ; preds = %5
  %17 = tail call ptr @stat_tap_get_field_data(ptr noundef %10, i32 noundef %13, i32 noundef 1)
  %18 = getelementptr inbounds nuw i8, ptr %17, i64 8
  %19 = load i32, ptr %18, align 8
  %20 = add i32 %19, 1
  store i32 %20, ptr %18, align 8
  %21 = load i8, ptr %11, align 8
  %22 = zext i8 %21 to i32
  tail call void @stat_tap_set_field_data(ptr noundef %10, i32 noundef %22, i32 noundef 1, ptr noundef %17)
  br label %23

23:                                               ; preds = %5, %16
  %.0 = phi i32 [ 1, %16 ], [ 0, %5 ]
  ret i32 %.0
}